(dp1
S'arp'
p2
ccopy_reg
_reconstructor
p3
(ctwisted.plugin
CachedDropin
p4
c__builtin__
object
p5
NtRp6
(dp7
S'moduleName'
p8
S'wiremaps.collector.arp'
p9
sS'description'
p10
NsS'plugins'
p11
(lp12
sbsS'core'
p13
g3
(g4
g5
NtRp14
(dp15
g8
S'wiremaps.collector.core'
p16
sg10
S'\nHandle collection of data in database with the help of SNMP\n'
p17
sg11
(lp18
sbsS'exception'
p19
g3
(g4
g5
NtRp20
(dp21
g8
S'wiremaps.collector.exception'
p22
sg10
Nsg11
(lp23
sbsS'fdb'
p24
g3
(g4
g5
NtRp25
(dp26
g8
S'wiremaps.collector.fdb'
p27
sg10
Nsg11
(lp28
sbsS'cisco'
p29
g3
(g4
g5
NtRp30
(dp31
g8
S'wiremaps.collector.cisco'
p32
sg10
Nsg11
(lp33
g3
(ctwisted.plugin
CachedPlugin
p34
g5
NtRp35
(dp36
S'provided'
p37
(lp38
cwiremaps.collector.icollector
ICollector
p39
actwisted.plugin
IPlugin
p40
asS'dropin'
p41
g30
sS'name'
p42
S'cisco'
p43
sg10
S'Collector for Cisco'
p44
sbasbsS'icollector'
p45
g3
(g4
g5
NtRp46
(dp47
g8
S'wiremaps.collector.icollector'
p48
sg10
Nsg11
(lp49
sbsS'blade'
p50
g3
(g4
g5
NtRp51
(dp52
g8
S'wiremaps.collector.blade'
p53
sg10
Nsg11
(lp54
g3
(g34
g5
NtRp55
(dp56
g37
(lp57
g39
ag40
asg41
g51
sg42
S'blade'
p58
sg10
S'Collector for Nortel Ethernet Switch Module for BladeCenter'
p59
sbasbsS'sonmp'
p60
g3
(g4
g5
NtRp61
(dp62
g8
S'wiremaps.collector.sonmp'
p63
sg10
Nsg11
(lp64
sbsS'proxy'
p65
g3
(g4
g5
NtRp66
(dp67
g8
S'wiremaps.collector.proxy'
p68
sg10
Nsg11
(lp69
sbsS'linux'
p70
g3
(g4
g5
NtRp71
(dp72
g8
S'wiremaps.collector.linux'
p73
sg10
Nsg11
(lp74
g3
(g34
g5
NtRp75
(dp76
g37
(lp77
g39
ag40
asg41
g71
sg42
S'linux'
p78
sg10
S'Collector for Linux.\n\n    It is assumed that they are running an LLDP agent. This agent will\n    tell us which ports to use.\n    '
p79
sbasbsS'5510'
p80
g3
(g4
g5
NtRp81
(dp82
g8
S'wiremaps.collector.5510'
p83
sg10
Nsg11
(lp84
g3
(g34
g5
NtRp85
(dp86
g37
(lp87
g39
ag40
asg41
g81
sg42
S'n5510'
p88
sg10
S'Collector for Nortel 55x0 and Nortel 425'
p89
sbasbsS'port'
p90
g3
(g4
g5
NtRp91
(dp92
g8
S'wiremaps.collector.port'
p93
sg10
Nsg11
(lp94
sbsS'lldp'
p95
g3
(g4
g5
NtRp96
(dp97
g8
S'wiremaps.collector.lldp'
p98
sg10
Nsg11
(lp99
sbs.