(dp1
S'icollector'
p2
ccopy_reg
_reconstructor
p3
(ctwisted.plugin
CachedDropin
p4
c__builtin__
object
p5
NtRp6
(dp7
S'moduleName'
p8
S'wiremaps.collector.icollector'
p9
sS'description'
p10
NsS'plugins'
p11
(lp12
sbsS'core'
p13
g3
(g4
g5
NtRp14
(dp15
S'moduleName'
p16
S'wiremaps.collector.core'
p17
sS'description'
p18
S'\nHandle collection of data in database with the help of SNMP\n'
p19
sS'plugins'
p20
(lp21
sbsS'exception'
p22
g3
(g4
g5
NtRp23
(dp24
S'moduleName'
p25
S'wiremaps.collector.exception'
p26
sS'description'
p27
NsS'plugins'
p28
(lp29
sbsS'fdb'
p30
g3
(g4
g5
NtRp31
(dp32
S'moduleName'
p33
S'wiremaps.collector.fdb'
p34
sS'description'
p35
NsS'plugins'
p36
(lp37
sbsS'cisco'
p38
g3
(g4
g5
NtRp39
(dp40
g25
S'wiremaps.collector.cisco'
p41
sg27
Nsg28
(lp42
g3
(ctwisted.plugin
CachedPlugin
p43
g5
NtRp44
(dp45
S'provided'
p46
(lp47
cwiremaps.collector.icollector
ICollector
p48
actwisted.plugin
IPlugin
p49
asS'dropin'
p50
g39
sS'name'
p51
S'cisco'
p52
sg27
S'Collector for Cisco'
p53
sbasbsS'arp'
p54
g3
(g4
g5
NtRp55
(dp56
S'moduleName'
p57
S'wiremaps.collector.arp'
p58
sS'description'
p59
NsS'plugins'
p60
(lp61
sbsS'blade'
p62
g3
(g4
g5
NtRp63
(dp64
S'moduleName'
p65
S'wiremaps.collector.blade'
p66
sS'description'
p67
NsS'plugins'
p68
(lp69
g3
(g43
g5
NtRp70
(dp71
S'provided'
p72
(lp73
g48
ag49
asS'dropin'
p74
g63
sS'name'
p75
S'blade'
p76
sg67
S'Collector for Nortel Ethernet Switch Module for BladeCenter'
p77
sbasbsS'sonmp'
p78
g3
(g4
g5
NtRp79
(dp80
S'moduleName'
p81
S'wiremaps.collector.sonmp'
p82
sS'description'
p83
NsS'plugins'
p84
(lp85
sbsS'proxy'
p86
g3
(g4
g5
NtRp87
(dp88
S'moduleName'
p89
S'wiremaps.collector.proxy'
p90
sS'description'
p91
NsS'plugins'
p92
(lp93
sbsS'linux'
p94
g3
(g4
g5
NtRp95
(dp96
g25
S'wiremaps.collector.linux'
p97
sg27
Nsg28
(lp98
g3
(g43
g5
NtRp99
(dp100
g46
(lp101
g48
ag49
asg50
g95
sg51
S'linux'
p102
sg27
S'Collector for Linux.\n\n    It is assumed that they are running an LLDP agent. This agent will\n    tell us which ports to use.\n    '
p103
sbasbsS'5510'
p104
g3
(g4
g5
NtRp105
(dp106
g57
S'wiremaps.collector.5510'
p107
sg59
Nsg60
(lp108
g3
(g43
g5
NtRp109
(dp110
S'provided'
p111
(lp112
g48
ag49
asS'dropin'
p113
g105
sS'name'
p114
S'n5510'
p115
sg59
S'Collector for Nortel 55x0 and Nortel 425'
p116
sbasbsS'port'
p117
g3
(g4
g5
NtRp118
(dp119
S'moduleName'
p120
S'wiremaps.collector.port'
p121
sS'description'
p122
NsS'plugins'
p123
(lp124
sbsS'lldp'
p125
g3
(g4
g5
NtRp126
(dp127
S'moduleName'
p128
S'wiremaps.collector.lldp'
p129
sS'description'
p130
NsS'plugins'
p131
(lp132
sbs.